; Function Attrs: nounwind uwtable
define hidden void @zif_apache_child_terminate(ptr noundef readonly captures(none) %0, ptr readnone captures(none) %1) #0 {
  %3 = getelementptr inbounds nuw i8, ptr %0, i64 44
  %4 = load i32, ptr %3, align 4, !tbaa !4
  %5 = icmp eq i32 %4, 0
  br i1 %5, label %9, label %6, !prof !7

6:                                                ; preds = %2
  tail call void @zend_wrong_parameters_none_error() #29
  %7 = load ptr, ptr getelementptr inbounds nuw (i8, ptr @executor_globals, i64 960), align 8, !tbaa !8
  %8 = icmp ne ptr %7, null
  tail call void @llvm.assume(i1 %8)
  br label %12

9:                                                ; preds = %2
  %10 = tail call i32 @fcgi_is_fastcgi() #29
  %.not = icmp eq i32 %10, 0
  br i1 %.not, label %12, label %11

11:                                               ; preds = %9
  tail call void @fcgi_terminate() #29
  br label %12

12:                                               ; preds = %11, %9, %6
  ret void
}